target datalayout = "e-m:e-p270:32:32-p271:32:32-p272:64:64-i64:64-i128:128-f80:128-n8:16:32:64-S128"
target triple = "x86_64-pc-linux-gnu"

; Function Attrs: nounwind uwtable
define internal zeroext i1 @check_has_header(ptr noundef %0, ptr noundef %1) #0 {
  %3 = alloca i1, align 1
  %4 = alloca ptr, align 8
  %5 = alloca ptr, align 8
  %6 = alloca ptr, align 8
  %7 = alloca i32, align 4
  store ptr %0, ptr %4, align 8, !tbaa !9
  store ptr %1, ptr %5, align 8, !tbaa !9
  call void @llvm.lifetime.start.p0(i64 8, ptr %6) #15
  %8 = load ptr, ptr %4, align 8, !tbaa !9
  store ptr %8, ptr %6, align 8, !tbaa !9
  br label %9

9:                                                ; preds = %25, %2
  %10 = load ptr, ptr %6, align 8, !tbaa !9
  %11 = load ptr, ptr %5, align 8, !tbaa !9
  %12 = call ptr @strstr(ptr noundef %10, ptr noundef %11) #16
  store ptr %12, ptr %6, align 8, !tbaa !9
  %13 = icmp ne ptr %12, null
  br i1 %13, label %14, label %28

14:                                               ; preds = %9
  %15 = load ptr, ptr %6, align 8, !tbaa !9
  %16 = load ptr, ptr %4, align 8, !tbaa !9
  %17 = icmp eq ptr %15, %16
  br i1 %17, label %24, label %18

18:                                               ; preds = %14
  %19 = load ptr, ptr %6, align 8, !tbaa !9
  %20 = getelementptr inbounds i8, ptr %19, i64 -1
  %21 = load i8, ptr %20, align 1, !tbaa !17
  %22 = sext i8 %21 to i32
  %23 = icmp eq i32 %22, 10
  br i1 %23, label %24, label %25

24:                                               ; preds = %18, %14
  store i1 true, ptr %3, align 1
  store i32 1, ptr %7, align 4
  br label %29

25:                                               ; preds = %18
  %26 = load ptr, ptr %6, align 8, !tbaa !9
  %27 = getelementptr inbounds nuw i8, ptr %26, i32 1
  store ptr %27, ptr %6, align 8, !tbaa !9
  br label %9

28:                                               ; preds = %9
  store i1 false, ptr %3, align 1
  store i32 1, ptr %7, align 4
  br label %29

29:                                               ; preds = %28, %24
  call void @llvm.lifetime.end.p0(i64 8, ptr %6) #15
  %30 = load i1, ptr %3, align 1
  ret i1 %30
}