; Function Attrs: nofree nounwind memory(read, inaccessiblemem: none) uwtable
define internal fastcc zeroext i1 @check_has_header(ptr noundef readonly %0, ptr noundef readonly captures(none) %1) unnamed_addr #7 {
  %3 = tail call ptr @strstr(ptr noundef nonnull dereferenceable(1) %0, ptr noundef nonnull dereferenceable(1) %1) #19
  %.not11 = icmp ne ptr %3, null
  %4 = icmp ne ptr %3, %0
  %or.cond.not12 = and i1 %4, %.not11
  br i1 %or.cond.not12, label %.lr.ph, label %._crit_edge

5:                                                ; preds = %.lr.ph
  %6 = getelementptr inbounds nuw i8, ptr %9, i64 1
  %7 = tail call ptr @strstr(ptr noundef nonnull dereferenceable(1) %6, ptr noundef nonnull dereferenceable(1) %1) #19
  %.not = icmp ne ptr %7, null
  %8 = icmp ne ptr %7, %0
  %or.cond.not = and i1 %8, %.not
  br i1 %or.cond.not, label %.lr.ph, label %._crit_edge

.lr.ph:                                           ; preds = %2, %5
  %9 = phi ptr [ %7, %5 ], [ %3, %2 ]
  %10 = getelementptr inbounds i8, ptr %9, i64 -1
  %11 = load i8, ptr %10, align 1, !tbaa !4
  %12 = icmp eq i8 %11, 10
  br i1 %12, label %._crit_edge, label %5

._crit_edge:                                      ; preds = %.lr.ph, %5, %2
  %.not.lcssa = phi i1 [ %.not11, %2 ], [ %.not, %5 ], [ true, %.lr.ph ]
  ret i1 %.not.lcssa
}